target datalayout = "e-m:e-p270:32:32-p271:32:32-p272:64:64-i64:64-i128:128-f80:128-n8:16:32:64-S128"
target triple = "x86_64-pc-linux-gnu"

%union.YYSTYPE = type { %"struct.nix::StringToken" }
%"struct.nix::StringToken" = type { ptr, i64, i8 }
%"struct.nix::ParserLocation" = type { i32, i32, i32, i32, i32, i32, i32, i32 }
%union.yyGLRStackItem = type { %struct.yySemanticOption }
%struct.yySemanticOption = type { i8, i32, ptr, i32, %union.YYSTYPE, %"struct.nix::ParserLocation", ptr }
%struct.yyGLRState = type { i8, i8, i32, ptr, i64, %union.anon.38, %"struct.nix::ParserLocation" }
%union.anon.38 = type { %union.YYSTYPE }

; Function Attrs: mustprogress nounwind uwtable
define internal noundef i32 @_ZL11yyrhsLengthi(i32 noundef %0) #2 {
  %2 = alloca i32, align 4
  store i32 %0, ptr %2, align 4
  %3 = load i32, ptr %2, align 4
  %4 = sext i32 %3 to i64
  %5 = getelementptr inbounds [88 x i8], ptr @_ZL4yyr2, i64 0, i64 %4
  %6 = load i8, ptr %5, align 1
  %7 = sext i8 %6 to i32
  ret i32 %7
}

; Function Attrs: mustprogress uwtable
define internal void @_ZL18yyresolveLocationsP10yyGLRStateiP10yyGLRStackPvPN3nix11ParserStateE(ptr noundef %0, i32 noundef %1, ptr noundef %2, ptr noundef %3, ptr noundef %4) #5 {
  %6 = alloca ptr, align 8
  %7 = alloca i32, align 4
  %8 = alloca ptr, align 8
  %9 = alloca ptr, align 8
  %10 = alloca ptr, align 8
  %11 = alloca [8 x %union.yyGLRStackItem], align 16
  %12 = alloca i32, align 4
  %13 = alloca ptr, align 8
  %14 = alloca ptr, align 8
  %15 = alloca i32, align 4
  %16 = alloca ptr, align 8
  store ptr %0, ptr %6, align 8
  store i32 %1, ptr %7, align 4
  store ptr %2, ptr %8, align 8
  store ptr %3, ptr %9, align 8
  store ptr %4, ptr %10, align 8
  %17 = load i32, ptr %7, align 4
  %18 = icmp slt i32 0, %17
  br i1 %18, label %19, label %140

19:                                               ; preds = %5
  %20 = load ptr, ptr %6, align 8
  %21 = getelementptr inbounds %struct.yyGLRState, ptr %20, i32 0, i32 3
  %22 = load ptr, ptr %21, align 8
  %23 = load i32, ptr %7, align 4
  %24 = sub nsw i32 %23, 1
  %25 = load ptr, ptr %8, align 8
  %26 = load ptr, ptr %9, align 8
  %27 = load ptr, ptr %10, align 8
  call void @_ZL18yyresolveLocationsP10yyGLRStateiP10yyGLRStackPvPN3nix11ParserStateE(ptr noundef %22, i32 noundef %24, ptr noundef %25, ptr noundef %26, ptr noundef %27)
  %28 = load ptr, ptr %6, align 8
  %29 = getelementptr inbounds %struct.yyGLRState, ptr %28, i32 0, i32 1
  %30 = load i8, ptr %29, align 1
  %31 = trunc i8 %30 to i1
  br i1 %31, label %139, label %32

32:                                               ; preds = %19
  %33 = load ptr, ptr %6, align 8
  %34 = getelementptr inbounds %struct.yyGLRState, ptr %33, i32 0, i32 5
  %35 = load ptr, ptr %34, align 8
  store ptr %35, ptr %13, align 8
  %36 = load ptr, ptr %13, align 8
  %37 = getelementptr inbounds %struct.yySemanticOption, ptr %36, i32 0, i32 1
  %38 = load i32, ptr %37, align 4
  %39 = call noundef i32 @_ZL11yyrhsLengthi(i32 noundef %38)
  store i32 %39, ptr %12, align 4
  %40 = load i32, ptr %12, align 4
  %41 = icmp slt i32 0, %40
  br i1 %41, label %42, label %71

42:                                               ; preds = %32
  %43 = load ptr, ptr %13, align 8
  %44 = getelementptr inbounds %struct.yySemanticOption, ptr %43, i32 0, i32 2
  %45 = load ptr, ptr %44, align 8
  %46 = load i32, ptr %12, align 4
  %47 = load ptr, ptr %8, align 8
  %48 = load ptr, ptr %9, align 8
  %49 = load ptr, ptr %10, align 8
  call void @_ZL18yyresolveLocationsP10yyGLRStateiP10yyGLRStackPvPN3nix11ParserStateE(ptr noundef %45, i32 noundef %46, ptr noundef %47, ptr noundef %48, ptr noundef %49)
  %50 = load ptr, ptr %13, align 8
  %51 = getelementptr inbounds %struct.yySemanticOption, ptr %50, i32 0, i32 2
  %52 = load ptr, ptr %51, align 8
  store ptr %52, ptr %14, align 8
  %53 = load i32, ptr %12, align 4
  store i32 %53, ptr %15, align 4
  br label %54

54:                                               ; preds = %64, %42
  %55 = load i32, ptr %15, align 4
  %56 = icmp sgt i32 %55, 0
  br i1 %56, label %57, label %70

57:                                               ; preds = %54
  %58 = load ptr, ptr %14, align 8
  %59 = getelementptr inbounds %struct.yyGLRState, ptr %58, i32 0, i32 6
  %60 = load i32, ptr %15, align 4
  %61 = sext i32 %60 to i64
  %62 = getelementptr inbounds [8 x %union.yyGLRStackItem], ptr %11, i64 0, i64 %61
  %63 = getelementptr inbounds %struct.yyGLRState, ptr %62, i32 0, i32 6
  call void @llvm.memcpy.p0.p0.i64(ptr align 8 %63, ptr align 8 %59, i64 32, i1 false)
  br label %64

64:                                               ; preds = %57
  %65 = load ptr, ptr %14, align 8
  %66 = getelementptr inbounds %struct.yyGLRState, ptr %65, i32 0, i32 3
  %67 = load ptr, ptr %66, align 8
  store ptr %67, ptr %14, align 8
  %68 = load i32, ptr %15, align 4
  %69 = sub nsw i32 %68, 1
  store i32 %69, ptr %15, align 4
  br label %54, !llvm.loop !109

70:                                               ; preds = %54
  br label %79

71:                                               ; preds = %32
  %72 = load ptr, ptr %13, align 8
  %73 = getelementptr inbounds %struct.yySemanticOption, ptr %72, i32 0, i32 2
  %74 = load ptr, ptr %73, align 8
  store ptr %74, ptr %16, align 8
  %75 = load ptr, ptr %16, align 8
  %76 = getelementptr inbounds %struct.yyGLRState, ptr %75, i32 0, i32 6
  %77 = getelementptr inbounds [8 x %union.yyGLRStackItem], ptr %11, i64 0, i64 0
  %78 = getelementptr inbounds %struct.yyGLRState, ptr %77, i32 0, i32 6
  call void @llvm.memcpy.p0.p0.i64(ptr align 16 %78, ptr align 8 %76, i64 32, i1 false)
  br label %79

79:                                               ; preds = %71, %70
  br label %80

80:                                               ; preds = %79
  %81 = load i32, ptr %12, align 4
  %82 = icmp ne i32 %81, 0
  br i1 %82, label %83, label %116

83:                                               ; preds = %80
  %84 = getelementptr inbounds [8 x %union.yyGLRStackItem], ptr %11, i64 0, i64 1
  %85 = getelementptr inbounds %struct.yyGLRState, ptr %84, i32 0, i32 6
  %86 = getelementptr inbounds %"struct.nix::ParserLocation", ptr %85, i32 0, i32 0
  %87 = load i32, ptr %86, align 8
  %88 = load ptr, ptr %6, align 8
  %89 = getelementptr inbounds %struct.yyGLRState, ptr %88, i32 0, i32 6
  %90 = getelementptr inbounds %"struct.nix::ParserLocation", ptr %89, i32 0, i32 0
  store i32 %87, ptr %90, align 8
  %91 = getelementptr inbounds [8 x %union.yyGLRStackItem], ptr %11, i64 0, i64 1
  %92 = getelementptr inbounds %struct.yyGLRState, ptr %91, i32 0, i32 6
  %93 = getelementptr inbounds %"struct.nix::ParserLocation", ptr %92, i32 0, i32 1
  %94 = load i32, ptr %93, align 4
  %95 = load ptr, ptr %6, align 8
  %96 = getelementptr inbounds %struct.yyGLRState, ptr %95, i32 0, i32 6
  %97 = getelementptr inbounds %"struct.nix::ParserLocation", ptr %96, i32 0, i32 1
  store i32 %94, ptr %97, align 4
  %98 = load i32, ptr %12, align 4
  %99 = sext i32 %98 to i64
  %100 = getelementptr inbounds [8 x %union.yyGLRStackItem], ptr %11, i64 0, i64 %99
  %101 = getelementptr inbounds %struct.yyGLRState, ptr %100, i32 0, i32 6
  %102 = getelementptr inbounds %"struct.nix::ParserLocation", ptr %101, i32 0, i32 2
  %103 = load i32, ptr %102, align 8
  %104 = load ptr, ptr %6, align 8
  %105 = getelementptr inbounds %struct.yyGLRState, ptr %104, i32 0, i32 6
  %106 = getelementptr inbounds %"struct.nix::ParserLocation", ptr %105, i32 0, i32 2
  store i32 %103, ptr %106, align 8
  %107 = load i32, ptr %12, align 4
  %108 = sext i32 %107 to i64
  %109 = getelementptr inbounds [8 x %union.yyGLRStackItem], ptr %11, i64 0, i64 %108
  %110 = getelementptr inbounds %struct.yyGLRState, ptr %109, i32 0, i32 6
  %111 = getelementptr inbounds %"struct.nix::ParserLocation", ptr %110, i32 0, i32 3
  %112 = load i32, ptr %111, align 4
  %113 = load ptr, ptr %6, align 8
  %114 = getelementptr inbounds %struct.yyGLRState, ptr %113, i32 0, i32 6
  %115 = getelementptr inbounds %"struct.nix::ParserLocation", ptr %114, i32 0, i32 3
  store i32 %112, ptr %115, align 4
  br label %137

116:                                              ; preds = %80
  %117 = getelementptr inbounds [8 x %union.yyGLRStackItem], ptr %11, i64 0, i64 0
  %118 = getelementptr inbounds %struct.yyGLRState, ptr %117, i32 0, i32 6
  %119 = getelementptr inbounds %"struct.nix::ParserLocation", ptr %118, i32 0, i32 2
  %120 = load i32, ptr %119, align 8
  %121 = load ptr, ptr %6, align 8
  %122 = getelementptr inbounds %struct.yyGLRState, ptr %121, i32 0, i32 6
  %123 = getelementptr inbounds %"struct.nix::ParserLocation", ptr %122, i32 0, i32 2
  store i32 %120, ptr %123, align 8
  %124 = load ptr, ptr %6, align 8
  %125 = getelementptr inbounds %struct.yyGLRState, ptr %124, i32 0, i32 6
  %126 = getelementptr inbounds %"struct.nix::ParserLocation", ptr %125, i32 0, i32 0
  store i32 %120, ptr %126, align 8
  %127 = getelementptr inbounds [8 x %union.yyGLRStackItem], ptr %11, i64 0, i64 0
  %128 = getelementptr inbounds %struct.yyGLRState, ptr %127, i32 0, i32 6
  %129 = getelementptr inbounds %"struct.nix::ParserLocation", ptr %128, i32 0, i32 3
  %130 = load i32, ptr %129, align 4
  %131 = load ptr, ptr %6, align 8
  %132 = getelementptr inbounds %struct.yyGLRState, ptr %131, i32 0, i32 6
  %133 = getelementptr inbounds %"struct.nix::ParserLocation", ptr %132, i32 0, i32 3
  store i32 %130, ptr %133, align 4
  %134 = load ptr, ptr %6, align 8
  %135 = getelementptr inbounds %struct.yyGLRState, ptr %134, i32 0, i32 6
  %136 = getelementptr inbounds %"struct.nix::ParserLocation", ptr %135, i32 0, i32 1
  store i32 %130, ptr %136, align 4
  br label %137

137:                                              ; preds = %116, %83
  br label %138

138:                                              ; preds = %137
  br label %139

139:                                              ; preds = %138, %19
  br label %140

140:                                              ; preds = %139, %5
  ret void
}