; Function Attrs: mustprogress nofree nosync nounwind memory(readwrite, inaccessiblemem: none) uwtable
define internal fastcc void @_ZL18yyresolveLocationsP10yyGLRStateiP10yyGLRStackPvPN3nix11ParserStateE(ptr nocapture noundef %0, i32 noundef %1) unnamed_addr #27 {
  %3 = alloca [8 x %union.yyGLRStackItem], align 16
  %4 = icmp sgt i32 %1, 0
  br i1 %4, label %5, label %55

5:                                                ; preds = %2
  %6 = getelementptr inbounds i8, ptr %0, i64 8
  %7 = load ptr, ptr %6, align 8
  %8 = add nsw i32 %1, -1
  tail call fastcc void @_ZL18yyresolveLocationsP10yyGLRStateiP10yyGLRStackPvPN3nix11ParserStateE(ptr noundef %7, i32 noundef %8)
  %9 = getelementptr inbounds i8, ptr %0, i64 1
  %10 = load i8, ptr %9, align 1
  %11 = and i8 %10, 1
  %.not = icmp eq i8 %11, 0
  br i1 %.not, label %12, label %55

12:                                               ; preds = %5
  %13 = getelementptr inbounds i8, ptr %0, i64 24
  %14 = load ptr, ptr %13, align 8
  %15 = getelementptr inbounds i8, ptr %14, i64 4
  %16 = load i32, ptr %15, align 4
  %17 = sext i32 %16 to i64
  %18 = getelementptr inbounds [88 x i8], ptr @_ZL4yyr2, i64 0, i64 %17
  %19 = load i8, ptr %18, align 1
  %20 = icmp sgt i8 %19, 0
  br i1 %20, label %21, label %31

21:                                               ; preds = %12
  %22 = zext nneg i8 %19 to i32
  %23 = getelementptr inbounds i8, ptr %14, i64 8
  %24 = load ptr, ptr %23, align 8
  tail call fastcc void @_ZL18yyresolveLocationsP10yyGLRStateiP10yyGLRStackPvPN3nix11ParserStateE(ptr noundef %24, i32 noundef %22)
  %25 = zext nneg i8 %19 to i64
  br label %26

26:                                               ; preds = %21, %26
  %indvars.iv = phi i64 [ %25, %21 ], [ %indvars.iv.next, %26 ]
  %.0.in39 = phi ptr [ %23, %21 ], [ %29, %26 ]
  %.0 = load ptr, ptr %.0.in39, align 8
  %27 = getelementptr inbounds i8, ptr %.0, i64 48
  %28 = getelementptr inbounds [8 x %union.yyGLRStackItem], ptr %3, i64 0, i64 %indvars.iv, i32 0, i32 5
  call void @llvm.memcpy.p0.p0.i64(ptr noundef nonnull align 8 dereferenceable(32) %28, ptr noundef nonnull align 8 dereferenceable(32) %27, i64 32, i1 false)
  %29 = getelementptr inbounds i8, ptr %.0, i64 8
  %indvars.iv.next = add nsw i64 %indvars.iv, -1
  %30 = icmp ugt i64 %indvars.iv, 1
  br i1 %30, label %26, label %.loopexit, !llvm.loop !201

31:                                               ; preds = %12
  %32 = getelementptr inbounds i8, ptr %14, i64 8
  %33 = load ptr, ptr %32, align 8
  %34 = getelementptr inbounds i8, ptr %33, i64 48
  %35 = getelementptr inbounds i8, ptr %3, i64 48
  call void @llvm.memcpy.p0.p0.i64(ptr noundef nonnull align 16 dereferenceable(32) %35, ptr noundef nonnull align 8 dereferenceable(32) %34, i64 32, i1 false)
  br label %.loopexit

.loopexit:                                        ; preds = %26, %31
  %.not37 = icmp eq i8 %19, 0
  %36 = getelementptr inbounds i8, ptr %0, i64 48
  br i1 %.not37, label %47, label %37

37:                                               ; preds = %.loopexit
  %38 = getelementptr inbounds i8, ptr %3, i64 136
  %39 = load <2 x i32>, ptr %38, align 8
  store <2 x i32> %39, ptr %36, align 8
  %40 = sext i8 %19 to i64
  %41 = getelementptr inbounds [8 x %union.yyGLRStackItem], ptr %3, i64 0, i64 %40, i32 0, i32 5
  %42 = getelementptr inbounds i8, ptr %41, i64 8
  %43 = load i32, ptr %42, align 8
  %44 = getelementptr inbounds i8, ptr %0, i64 56
  store i32 %43, ptr %44, align 8
  %45 = getelementptr inbounds i8, ptr %41, i64 12
  %46 = load i32, ptr %45, align 4
  br label %.sink.split

47:                                               ; preds = %.loopexit
  %48 = getelementptr inbounds i8, ptr %3, i64 56
  %49 = load i32, ptr %48, align 8
  %50 = getelementptr inbounds i8, ptr %0, i64 56
  store i32 %49, ptr %50, align 8
  store i32 %49, ptr %36, align 8
  %51 = getelementptr inbounds i8, ptr %3, i64 60
  %52 = load i32, ptr %51, align 4
  %53 = getelementptr inbounds i8, ptr %0, i64 60
  store i32 %52, ptr %53, align 4
  br label %.sink.split

.sink.split:                                      ; preds = %47, %37
  %.sink42 = phi i64 [ 60, %37 ], [ 52, %47 ]
  %.sink = phi i32 [ %46, %37 ], [ %52, %47 ]
  %54 = getelementptr inbounds i8, ptr %0, i64 %.sink42
  store i32 %.sink, ptr %54, align 4
  br label %55

55:                                               ; preds = %.sink.split, %5, %2
  ret void
}